target datalayout = "e-m:e-p270:32:32-p271:32:32-p272:64:64-i64:64-i128:128-f80:128-n8:16:32:64-S128"
target triple = "x86_64-pc-linux-gnu"

; Function Attrs: nounwind uwtable
define internal void @write_quant_table(ptr noundef %0, ptr noundef %1) #6 {
  %3 = alloca ptr, align 8
  %4 = alloca ptr, align 8
  %5 = alloca i32, align 4
  %6 = alloca i32, align 4
  %7 = alloca [32 x i8], align 16
  store ptr %0, ptr %3, align 8, !tbaa !64
  store ptr %1, ptr %4, align 8, !tbaa !69
  call void @llvm.lifetime.start.p0(i64 4, ptr %5) #16
  store i32 0, ptr %5, align 4, !tbaa !42
  call void @llvm.lifetime.start.p0(i64 4, ptr %6) #16
  call void @llvm.lifetime.start.p0(i64 32, ptr %7) #16
  %8 = getelementptr inbounds [32 x i8], ptr %7, i64 0, i64 0
  call void @llvm.memset.p0.i64(ptr align 16 %8, i8 -128, i64 32, i1 false)
  store i32 1, ptr %6, align 4, !tbaa !42
  br label %9

9:                                                ; preds = %36, %2
  %10 = load i32, ptr %6, align 4, !tbaa !42
  %11 = icmp slt i32 %10, 128
  br i1 %11, label %12, label %39

12:                                               ; preds = %9
  %13 = load ptr, ptr %4, align 8, !tbaa !69
  %14 = load i32, ptr %6, align 4, !tbaa !42
  %15 = sext i32 %14 to i64
  %16 = getelementptr inbounds i16, ptr %13, i64 %15
  %17 = load i16, ptr %16, align 2, !tbaa !84
  %18 = sext i16 %17 to i32
  %19 = load ptr, ptr %4, align 8, !tbaa !69
  %20 = load i32, ptr %6, align 4, !tbaa !42
  %21 = sub nsw i32 %20, 1
  %22 = sext i32 %21 to i64
  %23 = getelementptr inbounds i16, ptr %19, i64 %22
  %24 = load i16, ptr %23, align 2, !tbaa !84
  %25 = sext i16 %24 to i32
  %26 = icmp ne i32 %18, %25
  br i1 %26, label %27, label %35

27:                                               ; preds = %12
  %28 = load ptr, ptr %3, align 8, !tbaa !64
  %29 = getelementptr inbounds [32 x i8], ptr %7, i64 0, i64 0
  %30 = load i32, ptr %6, align 4, !tbaa !42
  %31 = load i32, ptr %5, align 4, !tbaa !42
  %32 = sub nsw i32 %30, %31
  %33 = sub nsw i32 %32, 1
  call void @put_symbol(ptr noundef %28, ptr noundef %29, i32 noundef %33, i32 noundef 0)
  %34 = load i32, ptr %6, align 4, !tbaa !42
  store i32 %34, ptr %5, align 4, !tbaa !42
  br label %35

35:                                               ; preds = %27, %12
  br label %36

36:                                               ; preds = %35
  %37 = load i32, ptr %6, align 4, !tbaa !42
  %38 = add nsw i32 %37, 1
  store i32 %38, ptr %6, align 4, !tbaa !42
  br label %9, !llvm.loop !196

39:                                               ; preds = %9
  %40 = load ptr, ptr %3, align 8, !tbaa !64
  %41 = getelementptr inbounds [32 x i8], ptr %7, i64 0, i64 0
  %42 = load i32, ptr %6, align 4, !tbaa !42
  %43 = load i32, ptr %5, align 4, !tbaa !42
  %44 = sub nsw i32 %42, %43
  %45 = sub nsw i32 %44, 1
  call void @put_symbol(ptr noundef %40, ptr noundef %41, i32 noundef %45, i32 noundef 0)
  call void @llvm.lifetime.end.p0(i64 32, ptr %7) #16
  call void @llvm.lifetime.end.p0(i64 4, ptr %6) #16
  call void @llvm.lifetime.end.p0(i64 4, ptr %5) #16
  ret void
}

; Function Attrs: nounwind uwtable
define internal void @write_quant_tables(ptr noundef %0, ptr noundef %1) #6 {
  %3 = alloca ptr, align 8
  %4 = alloca ptr, align 8
  %5 = alloca i32, align 4
  store ptr %0, ptr %3, align 8, !tbaa !64
  store ptr %1, ptr %4, align 8, !tbaa !69
  call void @llvm.lifetime.start.p0(i64 4, ptr %5) #16
  store i32 0, ptr %5, align 4, !tbaa !42
  br label %6

6:                                                ; preds = %16, %2
  %7 = load i32, ptr %5, align 4, !tbaa !42
  %8 = icmp slt i32 %7, 5
  br i1 %8, label %9, label %19

9:                                                ; preds = %6
  %10 = load ptr, ptr %3, align 8, !tbaa !64
  %11 = load ptr, ptr %4, align 8, !tbaa !69
  %12 = load i32, ptr %5, align 4, !tbaa !42
  %13 = sext i32 %12 to i64
  %14 = getelementptr inbounds [256 x i16], ptr %11, i64 %13
  %15 = getelementptr inbounds [256 x i16], ptr %14, i64 0, i64 0
  call void @write_quant_table(ptr noundef %10, ptr noundef %15)
  br label %16

16:                                               ; preds = %9
  %17 = load i32, ptr %5, align 4, !tbaa !42
  %18 = add nsw i32 %17, 1
  store i32 %18, ptr %5, align 4, !tbaa !42
  br label %6, !llvm.loop !70

19:                                               ; preds = %6
  call void @llvm.lifetime.end.p0(i64 4, ptr %5) #16
  ret void
}