; Function Attrs: nofree norecurse nosync nounwind memory(write, argmem: readwrite, inaccessiblemem: none) uwtable
define internal fastcc void @write_quant_tables(ptr noundef %0, ptr noundef readonly captures(none) %1) unnamed_addr #5 {
  %3 = alloca [32 x i8], align 16
  br label %4

4:                                                ; preds = %2, %write_quant_table.exit
  %indvars.iv = phi i64 [ 0, %2 ], [ %indvars.iv.next, %write_quant_table.exit ]
  %5 = getelementptr inbounds nuw [256 x i16], ptr %1, i64 %indvars.iv
  call void @llvm.lifetime.start.p0(i64 32, ptr nonnull %3) #19
  call void @llvm.memset.p0.i64(ptr noundef nonnull align 16 dereferenceable(32) %3, i8 -128, i64 32, i1 false)
  br label %6

6:                                                ; preds = %15, %4
  %indvars.iv.i = phi i64 [ 1, %4 ], [ %indvars.iv.next.i, %15 ]
  %.01213.i = phi i32 [ 0, %4 ], [ %.1.i, %15 ]
  %7 = getelementptr inbounds nuw i16, ptr %5, i64 %indvars.iv.i
  %8 = load i16, ptr %7, align 2, !tbaa !74
  %9 = getelementptr i8, ptr %7, i64 -2
  %10 = load i16, ptr %9, align 2, !tbaa !74
  %.not.i = icmp eq i16 %8, %10
  br i1 %.not.i, label %15, label %11

11:                                               ; preds = %6
  %12 = xor i32 %.01213.i, -1
  %13 = trunc nuw nsw i64 %indvars.iv.i to i32
  %14 = add nsw i32 %13, %12
  call fastcc void @put_symbol(ptr noundef %0, ptr noundef %3, i32 noundef %14, i32 noundef 0)
  br label %15

15:                                               ; preds = %11, %6
  %.1.i = phi i32 [ %13, %11 ], [ %.01213.i, %6 ]
  %indvars.iv.next.i = add nuw nsw i64 %indvars.iv.i, 1
  %exitcond.not.i = icmp eq i64 %indvars.iv.next.i, 128
  br i1 %exitcond.not.i, label %write_quant_table.exit, label %6, !llvm.loop !76

write_quant_table.exit:                           ; preds = %15
  %16 = sub nsw i32 127, %.1.i
  call fastcc void @put_symbol(ptr noundef %0, ptr noundef %3, i32 noundef %16, i32 noundef 0)
  call void @llvm.lifetime.end.p0(i64 32, ptr nonnull %3) #19
  %indvars.iv.next = add nuw nsw i64 %indvars.iv, 1
  %exitcond.not = icmp eq i64 %indvars.iv.next, 5
  br i1 %exitcond.not, label %17, label %4, !llvm.loop !77

17:                                               ; preds = %write_quant_table.exit
  ret void
}